target datalayout = "e-m:e-p270:32:32-p271:32:32-p272:64:64-i64:64-i128:128-f80:128-n8:16:32:64-S128"
target triple = "x86_64-pc-linux-gnu"

%struct._object = type { %union.anon, ptr }
%union.anon = type { i64 }
%struct.propertyobject = type { %struct._object, ptr, ptr, ptr, ptr, ptr, i32 }

; Function Attrs: nounwind uwtable
define internal i32 @property_traverse(ptr noundef %0, ptr noundef %1, ptr noundef %2) #0 {
  %4 = alloca i32, align 4
  %5 = alloca ptr, align 8
  %6 = alloca ptr, align 8
  %7 = alloca ptr, align 8
  %8 = alloca ptr, align 8
  %9 = alloca i32, align 4
  %10 = alloca i32, align 4
  %11 = alloca i32, align 4
  %12 = alloca i32, align 4
  %13 = alloca i32, align 4
  %14 = alloca i32, align 4
  store ptr %0, ptr %5, align 8, !tbaa !4
  store ptr %1, ptr %6, align 8, !tbaa !9
  store ptr %2, ptr %7, align 8, !tbaa !9
  call void @llvm.lifetime.start.p0(i64 8, ptr %8) #6
  %15 = load ptr, ptr %5, align 8, !tbaa !4
  store ptr %15, ptr %8, align 8, !tbaa !9
  br label %16

16:                                               ; preds = %3
  %17 = load ptr, ptr %8, align 8, !tbaa !9
  %18 = getelementptr inbounds nuw %struct.propertyobject, ptr %17, i32 0, i32 1
  %19 = load ptr, ptr %18, align 8, !tbaa !152
  %20 = icmp ne ptr %19, null
  br i1 %20, label %21, label %36

21:                                               ; preds = %16
  call void @llvm.lifetime.start.p0(i64 4, ptr %9) #6
  %22 = load ptr, ptr %6, align 8, !tbaa !9
  %23 = load ptr, ptr %8, align 8, !tbaa !9
  %24 = getelementptr inbounds nuw %struct.propertyobject, ptr %23, i32 0, i32 1
  %25 = load ptr, ptr %24, align 8, !tbaa !152
  %26 = load ptr, ptr %7, align 8, !tbaa !9
  %27 = call i32 %22(ptr noundef %25, ptr noundef %26)
  store i32 %27, ptr %9, align 4, !tbaa !16
  %28 = load i32, ptr %9, align 4, !tbaa !16
  %29 = icmp ne i32 %28, 0
  br i1 %29, label %30, label %32

30:                                               ; preds = %21
  %31 = load i32, ptr %9, align 4, !tbaa !16
  store i32 %31, ptr %4, align 4
  store i32 1, ptr %10, align 4
  br label %33

32:                                               ; preds = %21
  store i32 0, ptr %10, align 4
  br label %33

33:                                               ; preds = %32, %30
  call void @llvm.lifetime.end.p0(i64 4, ptr %9) #6
  %34 = load i32, ptr %10, align 4
  switch i32 %34, label %131 [
    i32 0, label %35
  ]

35:                                               ; preds = %33
  br label %36

36:                                               ; preds = %35, %16
  br label %37

37:                                               ; preds = %36
  br label %38

38:                                               ; preds = %37
  br label %39

39:                                               ; preds = %38
  %40 = load ptr, ptr %8, align 8, !tbaa !9
  %41 = getelementptr inbounds nuw %struct.propertyobject, ptr %40, i32 0, i32 2
  %42 = load ptr, ptr %41, align 8, !tbaa !154
  %43 = icmp ne ptr %42, null
  br i1 %43, label %44, label %59

44:                                               ; preds = %39
  call void @llvm.lifetime.start.p0(i64 4, ptr %11) #6
  %45 = load ptr, ptr %6, align 8, !tbaa !9
  %46 = load ptr, ptr %8, align 8, !tbaa !9
  %47 = getelementptr inbounds nuw %struct.propertyobject, ptr %46, i32 0, i32 2
  %48 = load ptr, ptr %47, align 8, !tbaa !154
  %49 = load ptr, ptr %7, align 8, !tbaa !9
  %50 = call i32 %45(ptr noundef %48, ptr noundef %49)
  store i32 %50, ptr %11, align 4, !tbaa !16
  %51 = load i32, ptr %11, align 4, !tbaa !16
  %52 = icmp ne i32 %51, 0
  br i1 %52, label %53, label %55

53:                                               ; preds = %44
  %54 = load i32, ptr %11, align 4, !tbaa !16
  store i32 %54, ptr %4, align 4
  store i32 1, ptr %10, align 4
  br label %56

55:                                               ; preds = %44
  store i32 0, ptr %10, align 4
  br label %56

56:                                               ; preds = %55, %53
  call void @llvm.lifetime.end.p0(i64 4, ptr %11) #6
  %57 = load i32, ptr %10, align 4
  switch i32 %57, label %131 [
    i32 0, label %58
  ]

58:                                               ; preds = %56
  br label %59

59:                                               ; preds = %58, %39
  br label %60

60:                                               ; preds = %59
  br label %61

61:                                               ; preds = %60
  br label %62

62:                                               ; preds = %61
  %63 = load ptr, ptr %8, align 8, !tbaa !9
  %64 = getelementptr inbounds nuw %struct.propertyobject, ptr %63, i32 0, i32 3
  %65 = load ptr, ptr %64, align 8, !tbaa !155
  %66 = icmp ne ptr %65, null
  br i1 %66, label %67, label %82

67:                                               ; preds = %62
  call void @llvm.lifetime.start.p0(i64 4, ptr %12) #6
  %68 = load ptr, ptr %6, align 8, !tbaa !9
  %69 = load ptr, ptr %8, align 8, !tbaa !9
  %70 = getelementptr inbounds nuw %struct.propertyobject, ptr %69, i32 0, i32 3
  %71 = load ptr, ptr %70, align 8, !tbaa !155
  %72 = load ptr, ptr %7, align 8, !tbaa !9
  %73 = call i32 %68(ptr noundef %71, ptr noundef %72)
  store i32 %73, ptr %12, align 4, !tbaa !16
  %74 = load i32, ptr %12, align 4, !tbaa !16
  %75 = icmp ne i32 %74, 0
  br i1 %75, label %76, label %78

76:                                               ; preds = %67
  %77 = load i32, ptr %12, align 4, !tbaa !16
  store i32 %77, ptr %4, align 4
  store i32 1, ptr %10, align 4
  br label %79

78:                                               ; preds = %67
  store i32 0, ptr %10, align 4
  br label %79

79:                                               ; preds = %78, %76
  call void @llvm.lifetime.end.p0(i64 4, ptr %12) #6
  %80 = load i32, ptr %10, align 4
  switch i32 %80, label %131 [
    i32 0, label %81
  ]

81:                                               ; preds = %79
  br label %82

82:                                               ; preds = %81, %62
  br label %83

83:                                               ; preds = %82
  br label %84

84:                                               ; preds = %83
  br label %85

85:                                               ; preds = %84
  %86 = load ptr, ptr %8, align 8, !tbaa !9
  %87 = getelementptr inbounds nuw %struct.propertyobject, ptr %86, i32 0, i32 4
  %88 = load ptr, ptr %87, align 8, !tbaa !156
  %89 = icmp ne ptr %88, null
  br i1 %89, label %90, label %105

90:                                               ; preds = %85
  call void @llvm.lifetime.start.p0(i64 4, ptr %13) #6
  %91 = load ptr, ptr %6, align 8, !tbaa !9
  %92 = load ptr, ptr %8, align 8, !tbaa !9
  %93 = getelementptr inbounds nuw %struct.propertyobject, ptr %92, i32 0, i32 4
  %94 = load ptr, ptr %93, align 8, !tbaa !156
  %95 = load ptr, ptr %7, align 8, !tbaa !9
  %96 = call i32 %91(ptr noundef %94, ptr noundef %95)
  store i32 %96, ptr %13, align 4, !tbaa !16
  %97 = load i32, ptr %13, align 4, !tbaa !16
  %98 = icmp ne i32 %97, 0
  br i1 %98, label %99, label %101

99:                                               ; preds = %90
  %100 = load i32, ptr %13, align 4, !tbaa !16
  store i32 %100, ptr %4, align 4
  store i32 1, ptr %10, align 4
  br label %102

101:                                              ; preds = %90
  store i32 0, ptr %10, align 4
  br label %102

102:                                              ; preds = %101, %99
  call void @llvm.lifetime.end.p0(i64 4, ptr %13) #6
  %103 = load i32, ptr %10, align 4
  switch i32 %103, label %131 [
    i32 0, label %104
  ]

104:                                              ; preds = %102
  br label %105

105:                                              ; preds = %104, %85
  br label %106

106:                                              ; preds = %105
  br label %107

107:                                              ; preds = %106
  br label %108

108:                                              ; preds = %107
  %109 = load ptr, ptr %8, align 8, !tbaa !9
  %110 = getelementptr inbounds nuw %struct.propertyobject, ptr %109, i32 0, i32 5
  %111 = load ptr, ptr %110, align 8, !tbaa !157
  %112 = icmp ne ptr %111, null
  br i1 %112, label %113, label %128

113:                                              ; preds = %108
  call void @llvm.lifetime.start.p0(i64 4, ptr %14) #6
  %114 = load ptr, ptr %6, align 8, !tbaa !9
  %115 = load ptr, ptr %8, align 8, !tbaa !9
  %116 = getelementptr inbounds nuw %struct.propertyobject, ptr %115, i32 0, i32 5
  %117 = load ptr, ptr %116, align 8, !tbaa !157
  %118 = load ptr, ptr %7, align 8, !tbaa !9
  %119 = call i32 %114(ptr noundef %117, ptr noundef %118)
  store i32 %119, ptr %14, align 4, !tbaa !16
  %120 = load i32, ptr %14, align 4, !tbaa !16
  %121 = icmp ne i32 %120, 0
  br i1 %121, label %122, label %124

122:                                              ; preds = %113
  %123 = load i32, ptr %14, align 4, !tbaa !16
  store i32 %123, ptr %4, align 4
  store i32 1, ptr %10, align 4
  br label %125

124:                                              ; preds = %113
  store i32 0, ptr %10, align 4
  br label %125

125:                                              ; preds = %124, %122
  call void @llvm.lifetime.end.p0(i64 4, ptr %14) #6
  %126 = load i32, ptr %10, align 4
  switch i32 %126, label %131 [
    i32 0, label %127
  ]

127:                                              ; preds = %125
  br label %128

128:                                              ; preds = %127, %108
  br label %129

129:                                              ; preds = %128
  br label %130

130:                                              ; preds = %129
  store i32 0, ptr %4, align 4
  store i32 1, ptr %10, align 4
  br label %131

131:                                              ; preds = %130, %125, %102, %79, %56, %33
  call void @llvm.lifetime.end.p0(i64 8, ptr %8) #6
  %132 = load i32, ptr %4, align 4
  ret i32 %132
}