; Function Attrs: nounwind uwtable
define internal i32 @property_traverse(ptr noundef readonly captures(none) %0, ptr noundef readonly captures(none) %1, ptr noundef %2) #0 {
  %4 = getelementptr inbounds nuw i8, ptr %0, i64 16
  %5 = load ptr, ptr %4, align 8, !tbaa !152
  %.not = icmp eq ptr %5, null
  br i1 %.not, label %8, label %6

6:                                                ; preds = %3
  %7 = tail call i32 %1(ptr noundef nonnull %5, ptr noundef %2) #9
  %.not53 = icmp eq i32 %7, 0
  br i1 %.not53, label %8, label %29

8:                                                ; preds = %3, %6
  %9 = getelementptr inbounds nuw i8, ptr %0, i64 24
  %10 = load ptr, ptr %9, align 8, !tbaa !154
  %.not54 = icmp eq ptr %10, null
  br i1 %.not54, label %13, label %11

11:                                               ; preds = %8
  %12 = tail call i32 %1(ptr noundef nonnull %10, ptr noundef %2) #9
  %.not55 = icmp eq i32 %12, 0
  br i1 %.not55, label %13, label %29

13:                                               ; preds = %8, %11
  %14 = getelementptr inbounds nuw i8, ptr %0, i64 32
  %15 = load ptr, ptr %14, align 8, !tbaa !155
  %.not56 = icmp eq ptr %15, null
  br i1 %.not56, label %18, label %16

16:                                               ; preds = %13
  %17 = tail call i32 %1(ptr noundef nonnull %15, ptr noundef %2) #9
  %.not57 = icmp eq i32 %17, 0
  br i1 %.not57, label %18, label %29

18:                                               ; preds = %13, %16
  %19 = getelementptr inbounds nuw i8, ptr %0, i64 40
  %20 = load ptr, ptr %19, align 8, !tbaa !156
  %.not58 = icmp eq ptr %20, null
  br i1 %.not58, label %23, label %21

21:                                               ; preds = %18
  %22 = tail call i32 %1(ptr noundef nonnull %20, ptr noundef %2) #9
  %.not59 = icmp eq i32 %22, 0
  br i1 %.not59, label %23, label %29

23:                                               ; preds = %18, %21
  %24 = getelementptr inbounds nuw i8, ptr %0, i64 48
  %25 = load ptr, ptr %24, align 8, !tbaa !157
  %.not60 = icmp eq ptr %25, null
  br i1 %.not60, label %28, label %26

26:                                               ; preds = %23
  %27 = tail call i32 %1(ptr noundef nonnull %25, ptr noundef %2) #9
  %.not61 = icmp eq i32 %27, 0
  br i1 %.not61, label %28, label %29

28:                                               ; preds = %26, %23
  br label %29

29:                                               ; preds = %6, %11, %16, %21, %26, %28
  %.1 = phi i32 [ 0, %28 ], [ %27, %26 ], [ %22, %21 ], [ %17, %16 ], [ %12, %11 ], [ %7, %6 ]
  ret i32 %.1
}